; Function Attrs: mustprogress nounwind uwtable
define dso_local void @_ZN5clang4ento5taint8addTaintEN4llvm18IntrusiveRefCntPtrIKNS0_12ProgramStateEEEPKNS_4StmtEPKNS_15LocationContextEj(ptr dead_on_unwind noalias writable sret(%"class.llvm::IntrusiveRefCntPtr") align 8 %0, ptr nocapture noundef readonly %1, ptr noundef %2, ptr noundef %3, i32 noundef %4) local_unnamed_addr #0 {
  %6 = alloca %"class.clang::ento::EnvironmentEntry", align 8
  %7 = alloca %"class.llvm::IntrusiveRefCntPtr", align 8
  %8 = load ptr, ptr %1, align 8
  store ptr %8, ptr %7, align 8
  %.not.i.i = icmp eq ptr %8, null
  br i1 %.not.i.i, label %_ZN4llvm18IntrusiveRefCntPtrIKN5clang4ento12ProgramStateEEC2ERKS5_.exit, label %9

9:                                                ; preds = %5
  tail call void @_ZN5clang4ento18ProgramStateRetainEPKNS0_12ProgramStateE(ptr noundef nonnull %8) #14
  %.pre = load ptr, ptr %1, align 8
  br label %_ZN4llvm18IntrusiveRefCntPtrIKN5clang4ento12ProgramStateEEC2ERKS5_.exit

_ZN4llvm18IntrusiveRefCntPtrIKN5clang4ento12ProgramStateEEC2ERKS5_.exit: ; preds = %5, %9
  %10 = phi ptr [ null, %5 ], [ %.pre, %9 ]
  call void @llvm.lifetime.start.p0(i64 16, ptr nonnull %6)
  %11 = getelementptr inbounds nuw i8, ptr %10, i64 16
  call void @_ZN5clang4ento16EnvironmentEntryC1EPKNS_4StmtEPKNS_15LocationContextE(ptr noundef nonnull align 8 dereferenceable(16) %6, ptr noundef %2, ptr noundef %3) #14
  %12 = getelementptr inbounds nuw i8, ptr %10, i64 8
  %13 = load ptr, ptr %12, align 8
  %14 = getelementptr inbounds nuw i8, ptr %13, i64 240
  %15 = load ptr, ptr %14, align 8
  %16 = call { ptr, i8 } @_ZNK5clang4ento11Environment7getSValERKNS0_16EnvironmentEntryERNS0_11SValBuilderE(ptr noundef nonnull align 8 dereferenceable(8) %11, ptr noundef nonnull align 8 dereferenceable(16) %6, ptr noundef nonnull align 8 dereferenceable(412) %15) #14
  call void @llvm.lifetime.end.p0(i64 16, ptr nonnull %6)
  %.fca.0.extract = extractvalue { ptr, i8 } %16, 0
  %.fca.1.extract = extractvalue { ptr, i8 } %16, 1
  call void @_ZN5clang4ento5taint8addTaintEN4llvm18IntrusiveRefCntPtrIKNS0_12ProgramStateEEENS0_4SValEj(ptr dead_on_unwind writable sret(%"class.llvm::IntrusiveRefCntPtr") align 8 %0, ptr noundef nonnull %7, ptr %.fca.0.extract, i8 %.fca.1.extract, i32 noundef %4)
  %17 = load ptr, ptr %7, align 8
  %.not.i.i4 = icmp eq ptr %17, null
  br i1 %.not.i.i4, label %_ZN4llvm18IntrusiveRefCntPtrIKN5clang4ento12ProgramStateEED2Ev.exit, label %18

18:                                               ; preds = %_ZN4llvm18IntrusiveRefCntPtrIKN5clang4ento12ProgramStateEEC2ERKS5_.exit
  call void @_ZN5clang4ento19ProgramStateReleaseEPKNS0_12ProgramStateE(ptr noundef nonnull %17) #14
  br label %_ZN4llvm18IntrusiveRefCntPtrIKN5clang4ento12ProgramStateEED2Ev.exit

_ZN4llvm18IntrusiveRefCntPtrIKN5clang4ento12ProgramStateEED2Ev.exit: ; preds = %_ZN4llvm18IntrusiveRefCntPtrIKN5clang4ento12ProgramStateEEC2ERKS5_.exit, %18
  ret void
}